; Function Attrs: null_pointer_is_valid sspstrong uwtable
define ptr @fragment_get(ptr noundef readonly captures(none) %0, ptr noundef %1, i32 noundef %2, ptr noundef %3) local_unnamed_addr #2 {
  %5 = alloca ptr, align 8
  call void @llvm.lifetime.start.p0(i64 8, ptr nonnull %5) #18
  %6 = getelementptr inbounds nuw i8, ptr %0, i64 16
  %7 = load ptr, ptr %6, align 8
  %8 = tail call ptr %7(ptr noundef %1, i32 noundef %2, ptr noundef %3)
  %9 = load ptr, ptr %0, align 8
  %10 = call i32 @g_hash_table_lookup_extended(ptr noundef %9, ptr noundef %8, ptr noundef null, ptr noundef nonnull %5)
  %.not.i = icmp eq i32 %10, 0
  br i1 %.not.i, label %11, label %lookup_fd_head.exit

11:                                               ; preds = %4
  store ptr null, ptr %5, align 8
  br label %lookup_fd_head.exit

lookup_fd_head.exit:                              ; preds = %4, %11
  %12 = getelementptr inbounds nuw i8, ptr %0, i64 32
  %13 = load ptr, ptr %12, align 8
  call void %13(ptr noundef %8)
  %14 = load ptr, ptr %5, align 8
  call void @llvm.lifetime.end.p0(i64 8, ptr nonnull %5) #18
  ret ptr %14
}